target datalayout = "e-m:e-p270:32:32-p271:32:32-p272:64:64-i64:64-i128:128-f80:128-n8:16:32:64-S128"
target triple = "x86_64-pc-linux-gnu"

@.str.61 = private unnamed_addr constant [4 x i8] c"a2a\00", align 1
@.str.63 = private unnamed_addr constant [5 x i8] c"hemi\00", align 1
@.str.65 = private unnamed_addr constant [5 x i8] c"quad\00", align 1
@.str.67 = private unnamed_addr constant [5 x i8] c"snc2\00", align 1
@.str.69 = private unnamed_addr constant [5 x i8] c"snc4\00", align 1

; Function Attrs: nounwind uwtable
define internal zeroext i16 @_knl_numa_token(ptr noundef %0) #0 {
  %2 = alloca ptr, align 8
  %3 = alloca i16, align 2
  store ptr %0, ptr %2, align 8
  call void @llvm.lifetime.start.p0(i64 2, ptr %3) #9
  store i16 0, ptr %3, align 2
  %4 = load ptr, ptr %2, align 8
  %5 = call i32 @xstrcasecmp(ptr noundef %4, ptr noundef @.str.61)
  %6 = icmp ne i32 %5, 0
  br i1 %6, label %12, label %7

7:                                                ; preds = %1
  %8 = load i16, ptr %3, align 2
  %9 = zext i16 %8 to i32
  %10 = or i32 %9, 1
  %11 = trunc i32 %10 to i16
  store i16 %11, ptr %3, align 2
  br label %52

12:                                               ; preds = %1
  %13 = load ptr, ptr %2, align 8
  %14 = call i32 @xstrcasecmp(ptr noundef %13, ptr noundef @.str.67)
  %15 = icmp ne i32 %14, 0
  br i1 %15, label %21, label %16

16:                                               ; preds = %12
  %17 = load i16, ptr %3, align 2
  %18 = zext i16 %17 to i32
  %19 = or i32 %18, 2
  %20 = trunc i32 %19 to i16
  store i16 %20, ptr %3, align 2
  br label %51

21:                                               ; preds = %12
  %22 = load ptr, ptr %2, align 8
  %23 = call i32 @xstrcasecmp(ptr noundef %22, ptr noundef @.str.69)
  %24 = icmp ne i32 %23, 0
  br i1 %24, label %30, label %25

25:                                               ; preds = %21
  %26 = load i16, ptr %3, align 2
  %27 = zext i16 %26 to i32
  %28 = or i32 %27, 4
  %29 = trunc i32 %28 to i16
  store i16 %29, ptr %3, align 2
  br label %50

30:                                               ; preds = %21
  %31 = load ptr, ptr %2, align 8
  %32 = call i32 @xstrcasecmp(ptr noundef %31, ptr noundef @.str.63)
  %33 = icmp ne i32 %32, 0
  br i1 %33, label %39, label %34

34:                                               ; preds = %30
  %35 = load i16, ptr %3, align 2
  %36 = zext i16 %35 to i32
  %37 = or i32 %36, 8
  %38 = trunc i32 %37 to i16
  store i16 %38, ptr %3, align 2
  br label %49

39:                                               ; preds = %30
  %40 = load ptr, ptr %2, align 8
  %41 = call i32 @xstrcasecmp(ptr noundef %40, ptr noundef @.str.65)
  %42 = icmp ne i32 %41, 0
  br i1 %42, label %48, label %43

43:                                               ; preds = %39
  %44 = load i16, ptr %3, align 2
  %45 = zext i16 %44 to i32
  %46 = or i32 %45, 16
  %47 = trunc i32 %46 to i16
  store i16 %47, ptr %3, align 2
  br label %48

48:                                               ; preds = %43, %39
  br label %49

49:                                               ; preds = %48, %34
  br label %50

50:                                               ; preds = %49, %25
  br label %51

51:                                               ; preds = %50, %16
  br label %52

52:                                               ; preds = %51, %7
  %53 = load i16, ptr %3, align 2
  call void @llvm.lifetime.end.p0(i64 2, ptr %3) #9
  ret i16 %53
}

; Function Attrs: nounwind uwtable
define internal zeroext i16 @_knl_numa_parse(ptr noundef %0, ptr noundef %1) #0 {
  %3 = alloca i16, align 2
  %4 = alloca ptr, align 8
  %5 = alloca ptr, align 8
  %6 = alloca ptr, align 8
  %7 = alloca ptr, align 8
  %8 = alloca ptr, align 8
  %9 = alloca i16, align 2
  %10 = alloca i32, align 4
  store ptr %0, ptr %4, align 8
  store ptr %1, ptr %5, align 8
  call void @llvm.lifetime.start.p0(i64 8, ptr %6) #9
  store ptr null, ptr %6, align 8
  call void @llvm.lifetime.start.p0(i64 8, ptr %7) #9
  call void @llvm.lifetime.start.p0(i64 8, ptr %8) #9
  call void @llvm.lifetime.start.p0(i64 2, ptr %9) #9
  store i16 0, ptr %9, align 2
  %11 = load ptr, ptr %4, align 8
  %12 = icmp ne ptr %11, null
  br i1 %12, label %15, label %13

13:                                               ; preds = %2
  %14 = load i16, ptr %9, align 2
  store i16 %14, ptr %3, align 2
  store i32 1, ptr %10, align 4
  br label %36

15:                                               ; preds = %2
  %16 = load ptr, ptr %4, align 8
  %17 = call ptr @xstrdup(ptr noundef %16)
  store ptr %17, ptr %7, align 8
  %18 = load ptr, ptr %7, align 8
  %19 = load ptr, ptr %5, align 8
  %20 = call ptr @strtok_r(ptr noundef %18, ptr noundef %19, ptr noundef %6) #9
  store ptr %20, ptr %8, align 8
  br label %21

21:                                               ; preds = %24, %15
  %22 = load ptr, ptr %8, align 8
  %23 = icmp ne ptr %22, null
  br i1 %23, label %24, label %34

24:                                               ; preds = %21
  %25 = load ptr, ptr %8, align 8
  %26 = call zeroext i16 @_knl_numa_token(ptr noundef %25)
  %27 = zext i16 %26 to i32
  %28 = load i16, ptr %9, align 2
  %29 = zext i16 %28 to i32
  %30 = or i32 %29, %27
  %31 = trunc i32 %30 to i16
  store i16 %31, ptr %9, align 2
  %32 = load ptr, ptr %5, align 8
  %33 = call ptr @strtok_r(ptr noundef null, ptr noundef %32, ptr noundef %6) #9
  store ptr %33, ptr %8, align 8
  br label %21, !llvm.loop !14

34:                                               ; preds = %21
  call void @slurm_xfree(ptr noundef %7)
  %35 = load i16, ptr %9, align 2
  store i16 %35, ptr %3, align 2
  store i32 1, ptr %10, align 4
  br label %36

36:                                               ; preds = %34, %13
  call void @llvm.lifetime.end.p0(i64 2, ptr %9) #9
  call void @llvm.lifetime.end.p0(i64 8, ptr %8) #9
  call void @llvm.lifetime.end.p0(i64 8, ptr %7) #9
  call void @llvm.lifetime.end.p0(i64 8, ptr %6) #9
  %37 = load i16, ptr %3, align 2
  ret i16 %37
}