; Function Attrs: nounwind uwtable
define internal fastcc zeroext range(i16 0, 32) i16 @_knl_numa_parse(ptr noundef %0, ptr noundef readonly captures(none) %1) unnamed_addr #0 {
  %3 = alloca ptr, align 8
  %4 = alloca ptr, align 8
  call void @llvm.lifetime.start.p0(i64 8, ptr nonnull %3) #14
  store ptr null, ptr %3, align 8
  call void @llvm.lifetime.start.p0(i64 8, ptr nonnull %4) #14
  %.not = icmp eq ptr %0, null
  br i1 %.not, label %19, label %5

5:                                                ; preds = %2
  %6 = tail call ptr @xstrdup(ptr noundef nonnull %0) #14
  store ptr %6, ptr %4, align 8
  %7 = call ptr @strtok_r(ptr noundef %6, ptr noundef %1, ptr noundef nonnull %3) #14
  %.not1213 = icmp eq ptr %7, null
  br i1 %.not1213, label %._crit_edge, label %.lr.ph

.lr.ph:                                           ; preds = %5, %_knl_numa_token.exit
  %.015 = phi i16 [ %17, %_knl_numa_token.exit ], [ 0, %5 ]
  %.0914 = phi ptr [ %18, %_knl_numa_token.exit ], [ %7, %5 ]
  %8 = call i32 @xstrcasecmp(ptr noundef nonnull %.0914, ptr noundef nonnull @.str.61) #14
  %.not.i = icmp eq i32 %8, 0
  br i1 %.not.i, label %_knl_numa_token.exit, label %9

9:                                                ; preds = %.lr.ph
  %10 = call i32 @xstrcasecmp(ptr noundef nonnull %.0914, ptr noundef nonnull @.str.67) #14
  %.not10.i = icmp eq i32 %10, 0
  br i1 %.not10.i, label %_knl_numa_token.exit, label %11

11:                                               ; preds = %9
  %12 = call i32 @xstrcasecmp(ptr noundef nonnull %.0914, ptr noundef nonnull @.str.69) #14
  %.not11.i = icmp eq i32 %12, 0
  br i1 %.not11.i, label %_knl_numa_token.exit, label %13

13:                                               ; preds = %11
  %14 = call i32 @xstrcasecmp(ptr noundef nonnull %.0914, ptr noundef nonnull @.str.63) #14
  %.not12.i = icmp eq i32 %14, 0
  br i1 %.not12.i, label %_knl_numa_token.exit, label %15

15:                                               ; preds = %13
  %16 = call i32 @xstrcasecmp(ptr noundef nonnull %.0914, ptr noundef nonnull @.str.65) #14
  %.not13.i = icmp eq i32 %16, 0
  %spec.select.i = select i1 %.not13.i, i16 16, i16 0
  br label %_knl_numa_token.exit

_knl_numa_token.exit:                             ; preds = %.lr.ph, %9, %11, %13, %15
  %.0.i = phi i16 [ 1, %.lr.ph ], [ 2, %9 ], [ 4, %11 ], [ 8, %13 ], [ %spec.select.i, %15 ]
  %17 = or i16 %.0.i, %.015
  %18 = call ptr @strtok_r(ptr noundef null, ptr noundef %1, ptr noundef nonnull %3) #14
  %.not12 = icmp eq ptr %18, null
  br i1 %.not12, label %._crit_edge, label %.lr.ph, !llvm.loop !20

._crit_edge:                                      ; preds = %_knl_numa_token.exit, %5
  %.0.lcssa = phi i16 [ 0, %5 ], [ %17, %_knl_numa_token.exit ]
  call void @slurm_xfree(ptr noundef nonnull %4) #14
  br label %19

19:                                               ; preds = %2, %._crit_edge
  %.010 = phi i16 [ %.0.lcssa, %._crit_edge ], [ 0, %2 ]
  call void @llvm.lifetime.end.p0(i64 8, ptr nonnull %4) #14
  call void @llvm.lifetime.end.p0(i64 8, ptr nonnull %3) #14
  ret i16 %.010
}